; Function Attrs: nounwind uwtable
define range(i32 -22, 1) i32 @av_timecode_init_from_components(ptr noundef captures(none) initializes((0, 20)) %0, i64 %1, i32 noundef %2, i32 noundef %3, i32 noundef %4, i32 noundef %5, i32 noundef %6, ptr noundef %7) local_unnamed_addr #5 {
  tail call void @llvm.memset.p0.i64(ptr noundef nonnull align 4 dereferenceable(20) %0, i8 0, i64 20, i1 false)
  %9 = getelementptr inbounds nuw i8, ptr %0, i64 4
  store i32 %2, ptr %9, align 4, !tbaa !10
  %10 = getelementptr inbounds nuw i8, ptr %0, i64 8
  store i64 %1, ptr %10, align 4
  %11 = icmp ugt i64 %1, 4294967295
  %12 = and i64 %1, 4294967295
  %13 = icmp ne i64 %12, 0
  %or.cond.i = and i1 %11, %13
  %14 = trunc i64 %1 to i32
  %15 = lshr i64 %1, 32
  %16 = trunc nuw i64 %15 to i32
  br i1 %or.cond.i, label %fps_from_frame_rate.exit, label %fps_from_frame_rate.exit.thread

fps_from_frame_rate.exit.thread:                  ; preds = %8
  %17 = getelementptr inbounds nuw i8, ptr %0, i64 16
  store i32 -1, ptr %17, align 4, !tbaa !4
  br label %26

fps_from_frame_rate.exit:                         ; preds = %8
  %sext.i = shl i64 %1, 32
  %18 = ashr exact i64 %sext.i, 32
  %19 = ashr i64 %1, 32
  %.lhs.trunc.i = trunc nsw i64 %19 to i32
  %20 = sdiv i32 %.lhs.trunc.i, 2
  %.sext.i = sext i32 %20 to i64
  %21 = add nsw i64 %18, %.sext.i
  %22 = sdiv i64 %21, %19
  %23 = trunc i64 %22 to i32
  %24 = getelementptr inbounds nuw i8, ptr %0, i64 16
  store i32 %23, ptr %24, align 4, !tbaa !4
  %25 = icmp slt i32 %23, 1
  br i1 %25, label %26, label %27

26:                                               ; preds = %fps_from_frame_rate.exit.thread, %fps_from_frame_rate.exit
  tail call void (ptr, i32, ptr, ...) @av_log(ptr noundef %7, i32 noundef 16, ptr noundef nonnull @.str.6) #10
  br label %check_timecode.exit.thread

27:                                               ; preds = %fps_from_frame_rate.exit
  %28 = and i32 %2, 1
  %.not.i = icmp eq i32 %28, 0
  %29 = urem i32 %23, 30
  %.not10.i = icmp eq i32 %29, 0
  %or.cond.i23 = or i1 %.not.i, %.not10.i
  br i1 %or.cond.i23, label %.preheader.i, label %30

30:                                               ; preds = %27
  tail call void (ptr, i32, ptr, ...) @av_log(ptr noundef %7, i32 noundef 16, ptr noundef nonnull @.str.7) #10
  br label %check_timecode.exit.thread

31:                                               ; preds = %.preheader.i
  %indvars.iv.next.i.i = add nuw nsw i64 %indvars.iv.i.i, 1
  %exitcond.not.i.i = icmp eq i64 %indvars.iv.next.i.i, 9
  br i1 %exitcond.not.i.i, label %35, label %.preheader.i, !llvm.loop !13

.preheader.i:                                     ; preds = %27, %31
  %indvars.iv.i.i = phi i64 [ %indvars.iv.next.i.i, %31 ], [ 0, %27 ]
  %32 = getelementptr inbounds nuw [9 x i32], ptr @check_fps.supported_fps, i64 0, i64 %indvars.iv.i.i
  %33 = load i32, ptr %32, align 4, !tbaa !12
  %34 = icmp eq i32 %33, %23
  br i1 %34, label %check_timecode.exit, label %31

35:                                               ; preds = %31
  tail call void (ptr, i32, ptr, ...) @av_log(ptr noundef %7, i32 noundef 24, ptr noundef nonnull @.str.8, i32 noundef %14, i32 noundef %16) #10
  %.pre = load i32, ptr %24, align 4, !tbaa !4
  %.pre27 = load i32, ptr %9, align 4, !tbaa !10
  %.pre28 = and i32 %.pre27, 1
  br label %check_timecode.exit

check_timecode.exit:                              ; preds = %.preheader.i, %35
  %.pre-phi = phi i32 [ %.pre28, %35 ], [ %28, %.preheader.i ]
  %36 = phi i32 [ %.pre, %35 ], [ %23, %.preheader.i ]
  %37 = mul nsw i32 %3, 3600
  %38 = mul nsw i32 %4, 60
  %39 = add nsw i32 %38, %37
  %40 = add nsw i32 %39, %5
  %41 = mul i32 %36, %40
  %42 = add i32 %41, %6
  store i32 %42, ptr %0, align 4, !tbaa !11
  %.not = icmp eq i32 %.pre-phi, 0
  br i1 %.not, label %check_timecode.exit.thread, label %43

43:                                               ; preds = %check_timecode.exit
  %44 = mul nsw i32 %3, 60
  %45 = add nsw i32 %44, %4
  %46 = udiv i32 %36, 30
  %.neg = sdiv i32 %45, -10
  %47 = add i32 %.neg, %45
  %48 = shl i32 %47, 1
  %49 = mul i32 %48, %46
  %50 = sub i32 %42, %49
  store i32 %50, ptr %0, align 4, !tbaa !11
  br label %check_timecode.exit.thread

check_timecode.exit.thread:                       ; preds = %30, %26, %check_timecode.exit, %43
  %.0 = phi i32 [ 0, %43 ], [ 0, %check_timecode.exit ], [ -22, %26 ], [ -22, %30 ]
  ret i32 %.0
}